target datalayout = "e-m:e-p270:32:32-p271:32:32-p272:64:64-i64:64-i128:128-f80:128-n8:16:32:64-S128"
target triple = "x86_64-pc-linux-gnu"

%"class.std::__cxx11::basic_string" = type { %"struct.std::__cxx11::basic_string<char>::_Alloc_hider", i64, %union.anon }
%"struct.std::__cxx11::basic_string<char>::_Alloc_hider" = type { ptr }
%union.anon = type { i64, [8 x i8] }
%"struct.faiss::IOWriter" = type { ptr, %"class.std::__cxx11::basic_string" }
%"class.std::vector.3" = type { %"struct.std::_Vector_base.4" }
%"struct.std::_Vector_base.4" = type { %"struct.std::_Vector_base<char, std::allocator<char>>::_Vector_impl" }
%"struct.std::_Vector_base<char, std::allocator<char>>::_Vector_impl" = type { %"struct.std::_Vector_base<char, std::allocator<char>>::_Vector_impl_data" }
%"struct.std::_Vector_base<char, std::allocator<char>>::_Vector_impl_data" = type { ptr, ptr, ptr }
%"struct.faiss::BufferedIOWriter" = type { %"struct.faiss::IOWriter", ptr, i64, i64, i64, i64, %"class.std::vector.3" }

@_ZTVN5faiss8IOWriterE = unnamed_addr constant { [6 x ptr] } { [6 x ptr] [ptr null, ptr @_ZTIN5faiss8IOWriterE, ptr @__cxa_pure_virtual, ptr @_ZN5faiss8IOWriter6filenoEv, ptr @_ZN5faiss8IOWriterD2Ev, ptr @_ZN5faiss8IOWriterD0Ev] }, align 8
@_ZTVN5faiss16BufferedIOWriterE = unnamed_addr constant { [6 x ptr] } { [6 x ptr] [ptr null, ptr @_ZTIN5faiss16BufferedIOWriterE, ptr @_ZN5faiss16BufferedIOWriterclEPKvmm, ptr @_ZN5faiss8IOWriter6filenoEv, ptr @_ZN5faiss16BufferedIOWriterD1Ev, ptr @_ZN5faiss16BufferedIOWriterD0Ev] }, align 8
@.str.1 = private unnamed_addr constant [107 x i8] c"generated/home/dtcxzyw/WorkSpace/Projects/compilers/llvm-opt-benchmark/bench/faiss/faiss/faiss/impl/io.cpp\00", align 1
@_ZTIN5faiss14FaissExceptionE = external constant ptr
@.str.12 = private unnamed_addr constant [19 x i8] c"Error: '%s' failed\00", align 1
@.str.13 = private unnamed_addr constant [12 x i8] c"written > 0\00", align 1
@__PRETTY_FUNCTION__._ZN5faiss16BufferedIOWriterD2Ev = private unnamed_addr constant [53 x i8] c"virtual faiss::BufferedIOWriter::~BufferedIOWriter()\00", align 1

; Function Attrs: mustprogress nounwind uwtable
define linkonce_odr noundef ptr @_ZNKSt6vectorIcSaIcEE11_M_data_ptrIcEEPT_S4_(ptr noundef nonnull align 8 dereferenceable(24) %0, ptr noundef %1) #1 comdat align 2 {
  %3 = alloca ptr, align 8
  %4 = alloca ptr, align 8
  store ptr %0, ptr %3, align 8
  store ptr %1, ptr %4, align 8
  %5 = load ptr, ptr %4, align 8
  ret ptr %5
}

; Function Attrs: mustprogress nounwind uwtable
define linkonce_odr void @_ZN5faiss8IOWriterD2Ev(ptr noundef nonnull align 8 dereferenceable(40) %0) unnamed_addr #1 comdat align 2 {
  %2 = alloca ptr, align 8
  store ptr %0, ptr %2, align 8
  %3 = load ptr, ptr %2, align 8
  store ptr getelementptr inbounds ({ [6 x ptr] }, ptr @_ZTVN5faiss8IOWriterE, i32 0, i32 0, i32 2), ptr %3, align 8
  %4 = getelementptr inbounds %"struct.faiss::IOWriter", ptr %3, i32 0, i32 1
  call void @_ZNSt7__cxx1112basic_stringIcSt11char_traitsIcESaIcEED1Ev(ptr noundef nonnull align 8 dereferenceable(32) %4) #12
  ret void
}

; Function Attrs: mustprogress nounwind uwtable
define linkonce_odr noundef ptr @_ZNSt6vectorIcSaIcEE4dataEv(ptr noundef nonnull align 8 dereferenceable(24) %0) #1 comdat align 2 {
  %2 = alloca ptr, align 8
  store ptr %0, ptr %2, align 8
  %3 = load ptr, ptr %2, align 8
  %4 = getelementptr inbounds %"struct.std::_Vector_base.4", ptr %3, i32 0, i32 0
  %5 = getelementptr inbounds %"struct.std::_Vector_base<char, std::allocator<char>>::_Vector_impl_data", ptr %4, i32 0, i32 0
  %6 = load ptr, ptr %5, align 8
  %7 = call noundef ptr @_ZNKSt6vectorIcSaIcEE11_M_data_ptrIcEEPT_S4_(ptr noundef nonnull align 8 dereferenceable(24) %3, ptr noundef %6) #12
  ret ptr %7
}

; Function Attrs: mustprogress uwtable
define void @_ZN5faiss16BufferedIOWriterD2Ev(ptr noundef nonnull align 8 dereferenceable(104) %0) unnamed_addr #0 align 2 personality ptr @__gxx_personality_v0 {
  %2 = alloca ptr, align 8
  %3 = alloca i64, align 8
  %4 = alloca i64, align 8
  %5 = alloca ptr, align 8
  %6 = alloca i32, align 4
  %7 = alloca %"class.std::__cxx11::basic_string", align 8
  %8 = alloca i32, align 4
  store ptr %0, ptr %2, align 8
  %9 = load ptr, ptr %2, align 8
  store ptr getelementptr inbounds ({ [6 x ptr] }, ptr @_ZTVN5faiss16BufferedIOWriterE, i32 0, i32 0, i32 2), ptr %9, align 8
  store i64 0, ptr %3, align 8
  br label %10

10:                                               ; preds = %64, %1
  %11 = load i64, ptr %3, align 8
  %12 = getelementptr inbounds %"struct.faiss::BufferedIOWriter", ptr %9, i32 0, i32 5
  %13 = load i64, ptr %12, align 8
  %14 = icmp ne i64 %11, %13
  br i1 %14, label %15, label %68

15:                                               ; preds = %10
  %16 = getelementptr inbounds %"struct.faiss::BufferedIOWriter", ptr %9, i32 0, i32 1
  %17 = load ptr, ptr %16, align 8
  %18 = getelementptr inbounds %"struct.faiss::BufferedIOWriter", ptr %9, i32 0, i32 6
  %19 = call noundef ptr @_ZNSt6vectorIcSaIcEE4dataEv(ptr noundef nonnull align 8 dereferenceable(24) %18) #12
  %20 = load i64, ptr %3, align 8
  %21 = getelementptr inbounds i8, ptr %19, i64 %20
  %22 = getelementptr inbounds %"struct.faiss::BufferedIOWriter", ptr %9, i32 0, i32 5
  %23 = load i64, ptr %22, align 8
  %24 = load i64, ptr %3, align 8
  %25 = sub i64 %23, %24
  %26 = load ptr, ptr %17, align 8
  %27 = getelementptr inbounds ptr, ptr %26, i64 0
  %28 = load ptr, ptr %27, align 8
  %29 = invoke noundef i64 %28(ptr noundef nonnull align 8 dereferenceable(40) %17, ptr noundef %21, i64 noundef 1, i64 noundef %25)
          to label %30 unwind label %47

30:                                               ; preds = %15
  store i64 %29, ptr %4, align 8
  br label %31

31:                                               ; preds = %30
  %32 = load i64, ptr %4, align 8
  %33 = icmp ugt i64 %32, 0
  br i1 %33, label %62, label %34

34:                                               ; preds = %31
  br label %35

35:                                               ; preds = %34
  call void @_ZNSt7__cxx1112basic_stringIcSt11char_traitsIcESaIcEEC1Ev(ptr noundef nonnull align 8 dereferenceable(32) %7) #12
  %36 = call i32 (ptr, i64, ptr, ...) @snprintf(ptr noundef null, i64 noundef 0, ptr noundef @.str.12, ptr noundef @.str.13) #12
  store i32 %36, ptr %8, align 4
  %37 = load i32, ptr %8, align 4
  %38 = add nsw i32 %37, 1
  %39 = sext i32 %38 to i64
  invoke void @_ZNSt7__cxx1112basic_stringIcSt11char_traitsIcESaIcEE6resizeEm(ptr noundef nonnull align 8 dereferenceable(32) %7, i64 noundef %39)
          to label %40 unwind label %51

40:                                               ; preds = %35
  %41 = invoke noundef nonnull align 1 dereferenceable(1) ptr @_ZNSt7__cxx1112basic_stringIcSt11char_traitsIcESaIcEEixEm(ptr noundef nonnull align 8 dereferenceable(32) %7, i64 noundef 0)
          to label %42 unwind label %51

42:                                               ; preds = %40
  %43 = call noundef i64 @_ZNKSt7__cxx1112basic_stringIcSt11char_traitsIcESaIcEE4sizeEv(ptr noundef nonnull align 8 dereferenceable(32) %7) #12
  %44 = call i32 (ptr, i64, ptr, ...) @snprintf(ptr noundef %41, i64 noundef %43, ptr noundef @.str.12, ptr noundef @.str.13) #12
  %45 = call ptr @__cxa_allocate_exception(i64 40) #12
  invoke void @_ZN5faiss14FaissExceptionC1ERKNSt7__cxx1112basic_stringIcSt11char_traitsIcESaIcEEEPKcSA_i(ptr noundef nonnull align 8 dereferenceable(40) %45, ptr noundef nonnull align 8 dereferenceable(32) %7, ptr noundef @__PRETTY_FUNCTION__._ZN5faiss16BufferedIOWriterD2Ev, ptr noundef @.str.1, i32 noundef 224)
          to label %46 unwind label %55

46:                                               ; preds = %42
  invoke void @__cxa_throw(ptr %45, ptr @_ZTIN5faiss14FaissExceptionE, ptr @_ZN5faiss14FaissExceptionD2Ev) #13
          to label %77 unwind label %51

47:                                               ; preds = %15
  %48 = landingpad { ptr, i32 }
          cleanup
  %49 = extractvalue { ptr, i32 } %48, 0
  store ptr %49, ptr %5, align 8
  %50 = extractvalue { ptr, i32 } %48, 1
  store i32 %50, ptr %6, align 4
  br label %70

51:                                               ; preds = %46, %40, %35
  %52 = landingpad { ptr, i32 }
          cleanup
  %53 = extractvalue { ptr, i32 } %52, 0
  store ptr %53, ptr %5, align 8
  %54 = extractvalue { ptr, i32 } %52, 1
  store i32 %54, ptr %6, align 4
  br label %59

55:                                               ; preds = %42
  %56 = landingpad { ptr, i32 }
          cleanup
  %57 = extractvalue { ptr, i32 } %56, 0
  store ptr %57, ptr %5, align 8
  %58 = extractvalue { ptr, i32 } %56, 1
  store i32 %58, ptr %6, align 4
  call void @__cxa_free_exception(ptr %45) #12
  br label %59

59:                                               ; preds = %55, %51
  call void @_ZNSt7__cxx1112basic_stringIcSt11char_traitsIcESaIcEED1Ev(ptr noundef nonnull align 8 dereferenceable(32) %7) #12
  br label %70

60:                                               ; No predecessors!
  br label %61

61:                                               ; preds = %60
  br label %62

62:                                               ; preds = %61, %31
  br label %63

63:                                               ; preds = %62
  br label %64

64:                                               ; preds = %63
  %65 = load i64, ptr %4, align 8
  %66 = load i64, ptr %3, align 8
  %67 = add i64 %66, %65
  store i64 %67, ptr %3, align 8
  br label %10, !llvm.loop !9

68:                                               ; preds = %10
  %69 = getelementptr inbounds %"struct.faiss::BufferedIOWriter", ptr %9, i32 0, i32 6
  call void @_ZNSt6vectorIcSaIcEED2Ev(ptr noundef nonnull align 8 dereferenceable(24) %69) #12
  call void @_ZN5faiss8IOWriterD2Ev(ptr noundef nonnull align 8 dereferenceable(40) %9)
  ret void

70:                                               ; preds = %59, %47
  %71 = getelementptr inbounds %"struct.faiss::BufferedIOWriter", ptr %9, i32 0, i32 6
  call void @_ZNSt6vectorIcSaIcEED2Ev(ptr noundef nonnull align 8 dereferenceable(24) %71) #12
  call void @_ZN5faiss8IOWriterD2Ev(ptr noundef nonnull align 8 dereferenceable(40) %9)
  br label %72

72:                                               ; preds = %70
  %73 = load ptr, ptr %5, align 8
  %74 = load i32, ptr %6, align 4
  %75 = insertvalue { ptr, i32 } poison, ptr %73, 0
  %76 = insertvalue { ptr, i32 } %75, i32 %74, 1
  resume { ptr, i32 } %76

77:                                               ; preds = %46
  unreachable
}