; Function Attrs: mustprogress uwtable
define void @_ZN5faiss16BufferedIOWriterD2Ev(ptr noundef nonnull align 8 dereferenceable(104) %0) unnamed_addr #2 align 2 personality ptr @__gxx_personality_v0 {
  %2 = alloca %"class.std::__cxx11::basic_string", align 8
  store ptr getelementptr inbounds ({ [6 x ptr] }, ptr @_ZTVN5faiss16BufferedIOWriterE, i64 0, i32 0, i64 2), ptr %0, align 8
  %3 = getelementptr inbounds i8, ptr %0, i64 72
  %4 = load i64, ptr %3, align 8
  %.not17 = icmp eq i64 %4, 0
  br i1 %.not17, label %._crit_edge, label %.lr.ph

.lr.ph:                                           ; preds = %1
  %5 = getelementptr inbounds i8, ptr %0, i64 40
  %6 = getelementptr inbounds i8, ptr %0, i64 80
  br label %10

7:                                                ; preds = %19
  %8 = add i64 %18, %.018
  %9 = load i64, ptr %3, align 8
  %.not = icmp eq i64 %8, %9
  br i1 %.not, label %._crit_edge, label %10, !llvm.loop !9

10:                                               ; preds = %.lr.ph, %7
  %11 = phi i64 [ %4, %.lr.ph ], [ %9, %7 ]
  %.018 = phi i64 [ 0, %.lr.ph ], [ %8, %7 ]
  %12 = load ptr, ptr %5, align 8
  %13 = load ptr, ptr %6, align 8
  %14 = getelementptr inbounds i8, ptr %13, i64 %.018
  %15 = sub i64 %11, %.018
  %16 = load ptr, ptr %12, align 8
  %17 = load ptr, ptr %16, align 8
  %18 = invoke noundef i64 %17(ptr noundef nonnull align 8 dereferenceable(40) %12, ptr noundef %14, i64 noundef 1, i64 noundef %15)
          to label %19 unwind label %31

19:                                               ; preds = %10
  %.not13 = icmp eq i64 %18, 0
  br i1 %.not13, label %20, label %7

20:                                               ; preds = %19
  call void @_ZNSt7__cxx1112basic_stringIcSt11char_traitsIcESaIcEEC1Ev(ptr noundef nonnull align 8 dereferenceable(32) %2) #21
  %21 = call i32 (ptr, i64, ptr, ...) @snprintf(ptr noundef null, i64 noundef 0, ptr noundef nonnull @.str.12, ptr noundef nonnull @.str.13) #21
  %22 = add nsw i32 %21, 1
  %23 = sext i32 %22 to i64
  invoke void @_ZNSt7__cxx1112basic_stringIcSt11char_traitsIcESaIcEE6resizeEm(ptr noundef nonnull align 8 dereferenceable(32) %2, i64 noundef %23)
          to label %24 unwind label %33

24:                                               ; preds = %20
  %25 = invoke noundef nonnull align 1 dereferenceable(1) ptr @_ZNSt7__cxx1112basic_stringIcSt11char_traitsIcESaIcEEixEm(ptr noundef nonnull align 8 dereferenceable(32) %2, i64 noundef 0)
          to label %26 unwind label %33

26:                                               ; preds = %24
  %27 = call noundef i64 @_ZNKSt7__cxx1112basic_stringIcSt11char_traitsIcESaIcEE4sizeEv(ptr noundef nonnull align 8 dereferenceable(32) %2) #21
  %28 = call i32 (ptr, i64, ptr, ...) @snprintf(ptr noundef nonnull %25, i64 noundef %27, ptr noundef nonnull @.str.12, ptr noundef nonnull @.str.13) #21
  %29 = call ptr @__cxa_allocate_exception(i64 40) #21
  invoke void @_ZN5faiss14FaissExceptionC1ERKNSt7__cxx1112basic_stringIcSt11char_traitsIcESaIcEEEPKcSA_i(ptr noundef nonnull align 8 dereferenceable(40) %29, ptr noundef nonnull align 8 dereferenceable(32) %2, ptr noundef nonnull @__PRETTY_FUNCTION__._ZN5faiss16BufferedIOWriterD2Ev, ptr noundef nonnull @.str.1, i32 noundef 224)
          to label %30 unwind label %35

30:                                               ; preds = %26
  invoke void @__cxa_throw(ptr nonnull %29, ptr nonnull @_ZTIN5faiss14FaissExceptionE, ptr nonnull @_ZN5faiss14FaissExceptionD2Ev) #22
          to label %44 unwind label %33

31:                                               ; preds = %10
  %32 = landingpad { ptr, i32 }
          cleanup
  br label %42

33:                                               ; preds = %30, %24, %20
  %34 = landingpad { ptr, i32 }
          cleanup
  br label %37

35:                                               ; preds = %26
  %36 = landingpad { ptr, i32 }
          cleanup
  call void @__cxa_free_exception(ptr %29) #21
  br label %37

37:                                               ; preds = %35, %33
  %.pn = phi { ptr, i32 } [ %34, %33 ], [ %36, %35 ]
  call void @_ZNSt7__cxx1112basic_stringIcSt11char_traitsIcESaIcEED1Ev(ptr noundef nonnull align 8 dereferenceable(32) %2) #21
  br label %42

._crit_edge:                                      ; preds = %7, %1
  %38 = getelementptr inbounds i8, ptr %0, i64 80
  %39 = load ptr, ptr %38, align 8
  %.not.i.i.i = icmp eq ptr %39, null
  br i1 %.not.i.i.i, label %_ZNSt6vectorIcSaIcEED2Ev.exit, label %40

40:                                               ; preds = %._crit_edge
  tail call void @_ZdlPv(ptr noundef nonnull %39) #24
  br label %_ZNSt6vectorIcSaIcEED2Ev.exit

_ZNSt6vectorIcSaIcEED2Ev.exit:                    ; preds = %._crit_edge, %40
  tail call void @_ZNSaIcED2Ev(ptr noundef nonnull align 1 dereferenceable(1) %38) #21
  store ptr getelementptr inbounds ({ [6 x ptr] }, ptr @_ZTVN5faiss8IOWriterE, i64 0, i32 0, i64 2), ptr %0, align 8
  %41 = getelementptr inbounds i8, ptr %0, i64 8
  tail call void @_ZNSt7__cxx1112basic_stringIcSt11char_traitsIcESaIcEED1Ev(ptr noundef nonnull align 8 dereferenceable(32) %41) #21
  ret void

42:                                               ; preds = %37, %31
  %.pn.pn = phi { ptr, i32 } [ %.pn, %37 ], [ %32, %31 ]
  call void @_ZNSt6vectorIcSaIcEED2Ev(ptr noundef nonnull align 8 dereferenceable(24) %6) #21
  store ptr getelementptr inbounds ({ [6 x ptr] }, ptr @_ZTVN5faiss8IOWriterE, i64 0, i32 0, i64 2), ptr %0, align 8
  %43 = getelementptr inbounds i8, ptr %0, i64 8
  call void @_ZNSt7__cxx1112basic_stringIcSt11char_traitsIcESaIcEED1Ev(ptr noundef nonnull align 8 dereferenceable(32) %43) #21
  resume { ptr, i32 } %.pn.pn

44:                                               ; preds = %30
  unreachable
}